target datalayout = "e-m:e-p270:32:32-p271:32:32-p272:64:64-i64:64-i128:128-f80:128-n8:16:32:64-S128"
target triple = "x86_64-pc-linux-gnu"

@hf_sip_feature_cap = internal global i32 0, align 4

; Function Attrs: null_pointer_is_valid sspstrong uwtable
define internal void @dissect_sip_p_feature_caps(ptr noundef %0, ptr noundef %1, i32 noundef %2, i32 noundef %3) #0 {
  %5 = alloca ptr, align 8
  %6 = alloca ptr, align 8
  %7 = alloca i32, align 4
  %8 = alloca i32, align 4
  %9 = alloca i32, align 4
  %10 = alloca i32, align 4
  %11 = alloca i32, align 4
  %12 = alloca i16, align 2
  %13 = alloca i32, align 4
  store ptr %0, ptr %5, align 8
  store ptr %1, ptr %6, align 8
  store i32 %2, ptr %7, align 4
  store i32 %3, ptr %8, align 4
  call void @llvm.lifetime.start.p0(i64 4, ptr %9) #18
  call void @llvm.lifetime.start.p0(i64 4, ptr %10) #18
  call void @llvm.lifetime.start.p0(i64 4, ptr %11) #18
  call void @llvm.lifetime.start.p0(i64 2, ptr %12) #18
  store i16 15147, ptr %12, align 2
  %14 = load ptr, ptr %5, align 8
  %15 = load i32, ptr %7, align 4
  %16 = load i32, ptr %8, align 4
  %17 = load i32, ptr %7, align 4
  %18 = sub i32 %16, %17
  %19 = call i32 @tvb_skip_wsp(ptr noundef %14, i32 noundef %15, i32 noundef %18)
  store i32 %19, ptr %10, align 4
  %20 = load i32, ptr %10, align 4
  %21 = load i32, ptr %8, align 4
  %22 = icmp sge i32 %20, %21
  br i1 %22, label %23, label %24

23:                                               ; preds = %4
  store i32 1, ptr %13, align 4
  br label %59

24:                                               ; preds = %4
  br label %25

25:                                               ; preds = %51, %24
  %26 = load i32, ptr %10, align 4
  %27 = load i32, ptr %8, align 4
  %28 = icmp slt i32 %26, %27
  br i1 %28, label %29, label %58

29:                                               ; preds = %25
  %30 = load i32, ptr %10, align 4
  store i32 %30, ptr %9, align 4
  %31 = load ptr, ptr %5, align 8
  %32 = load i32, ptr %9, align 4
  %33 = load i32, ptr %8, align 4
  %34 = load i32, ptr %9, align 4
  %35 = sub i32 %33, %34
  %36 = load i16, ptr %12, align 2
  %37 = call i32 @tvb_find_uint16(ptr noundef %31, i32 noundef %32, i32 noundef %35, i16 noundef zeroext %36)
  store i32 %37, ptr %10, align 4
  %38 = load i32, ptr %10, align 4
  %39 = icmp eq i32 %38, -1
  br i1 %39, label %40, label %45

40:                                               ; preds = %29
  %41 = load i32, ptr %8, align 4
  %42 = load i32, ptr %9, align 4
  %43 = sub i32 %41, %42
  store i32 %43, ptr %11, align 4
  %44 = load i32, ptr %8, align 4
  store i32 %44, ptr %10, align 4
  br label %51

45:                                               ; preds = %29
  %46 = load i32, ptr %10, align 4
  %47 = load i32, ptr %9, align 4
  %48 = sub i32 %46, %47
  store i32 %48, ptr %11, align 4
  %49 = load i32, ptr %10, align 4
  %50 = add i32 %49, 2
  store i32 %50, ptr %10, align 4
  br label %51

51:                                               ; preds = %45, %40
  %52 = load ptr, ptr %6, align 8
  %53 = load i32, ptr @hf_sip_feature_cap, align 4
  %54 = load ptr, ptr %5, align 8
  %55 = load i32, ptr %9, align 4
  %56 = load i32, ptr %11, align 4
  %57 = call ptr @proto_tree_add_item(ptr noundef %52, i32 noundef %53, ptr noundef %54, i32 noundef %55, i32 noundef %56, i32 noundef 2)
  br label %25, !llvm.loop !63

58:                                               ; preds = %25
  store i32 0, ptr %13, align 4
  br label %59

59:                                               ; preds = %58, %23
  call void @llvm.lifetime.end.p0(i64 2, ptr %12) #18
  call void @llvm.lifetime.end.p0(i64 4, ptr %11) #18
  call void @llvm.lifetime.end.p0(i64 4, ptr %10) #18
  call void @llvm.lifetime.end.p0(i64 4, ptr %9) #18
  %60 = load i32, ptr %13, align 4
  switch i32 %60, label %62 [
    i32 0, label %61
    i32 1, label %61
  ]

61:                                               ; preds = %59, %59
  ret void

62:                                               ; preds = %59
  unreachable
}