; Function Attrs: null_pointer_is_valid sspstrong uwtable
define internal fastcc void @dissect_sip_p_feature_caps(ptr noundef %0, ptr noundef %1, i32 noundef %2, i32 noundef %3) unnamed_addr #0 {
  %5 = sub i32 %3, %2
  %6 = tail call i32 @tvb_skip_wsp(ptr noundef %0, i32 noundef %2, i32 noundef %5)
  %.not = icmp slt i32 %6, %3
  br i1 %.not, label %.preheader, label %.loopexit

.preheader:                                       ; preds = %4, %.preheader
  %.028 = phi i32 [ %.1, %.preheader ], [ %6, %4 ]
  %7 = sub i32 %3, %.028
  %8 = tail call i32 @tvb_find_uint16(ptr noundef %0, i32 noundef %.028, i32 noundef %7, i16 noundef zeroext 15147)
  %9 = icmp eq i32 %8, -1
  %10 = sub i32 %8, %.028
  %11 = add i32 %8, 2
  %.024 = select i1 %9, i32 %7, i32 %10
  %.1 = select i1 %9, i32 %3, i32 %11
  %12 = load i32, ptr @hf_sip_feature_cap, align 4
  %13 = tail call ptr @proto_tree_add_item(ptr noundef %1, i32 noundef %12, ptr noundef %0, i32 noundef %.028, i32 noundef %.024, i32 noundef 2)
  %14 = icmp slt i32 %.1, %3
  br i1 %14, label %.preheader, label %.loopexit, !llvm.loop !62

.loopexit:                                        ; preds = %.preheader, %4
  ret void
}